target datalayout = "e-m:e-p270:32:32-p271:32:32-p272:64:64-i64:64-i128:128-f80:128-n8:16:32:64-S128"
target triple = "x86_64-pc-linux-gnu"

%struct.Cgt_Man_t_ = type { ptr, ptr, ptr, ptr, ptr, ptr, ptr, ptr, ptr, ptr, ptr, ptr, ptr, ptr, i32, i32, i32, i32, i32, i32, i32, i32, i64, i64, i64, i64, i64, i64, i64, i64, i64 }
%struct.Cgt_Par_t_ = type { i32, i32, i32, i32, i32, i32, i32, i32, i32 }

@.str.1 = private unnamed_addr constant [90 x i8] c"Params: LevMax = %d. CandMax = %d. OdcMax = %d. ConfMax = %d. VarMin = %d. FlopMin = %d.\0A\00", align 1
@.str.2 = private unnamed_addr constant [72 x i8] c"SAT   : Calls = %d. Unsat = %d. Sat = %d. Fails = %d.  Recycles = %d.  \00", align 1
@.str.3 = private unnamed_addr constant [5 x i8] c"%s =\00", align 1
@.str.4 = private unnamed_addr constant [5 x i8] c"Time\00", align 1
@.str.5 = private unnamed_addr constant [11 x i8] c"%9.2f sec\0A\00", align 1

; Function Attrs: nounwind uwtable
define void @Cgt_ManPrintStats(ptr noundef %0) #0 {
  %2 = alloca ptr, align 8
  store ptr %0, ptr %2, align 8, !tbaa !10
  %3 = load ptr, ptr %2, align 8, !tbaa !10
  %4 = getelementptr inbounds nuw %struct.Cgt_Man_t_, ptr %3, i32 0, i32 0
  %5 = load ptr, ptr %4, align 8, !tbaa !12
  %6 = getelementptr inbounds nuw %struct.Cgt_Par_t_, ptr %5, i32 0, i32 0
  %7 = load i32, ptr %6, align 4, !tbaa !54
  %8 = load ptr, ptr %2, align 8, !tbaa !10
  %9 = getelementptr inbounds nuw %struct.Cgt_Man_t_, ptr %8, i32 0, i32 0
  %10 = load ptr, ptr %9, align 8, !tbaa !12
  %11 = getelementptr inbounds nuw %struct.Cgt_Par_t_, ptr %10, i32 0, i32 1
  %12 = load i32, ptr %11, align 4, !tbaa !56
  %13 = load ptr, ptr %2, align 8, !tbaa !10
  %14 = getelementptr inbounds nuw %struct.Cgt_Man_t_, ptr %13, i32 0, i32 0
  %15 = load ptr, ptr %14, align 8, !tbaa !12
  %16 = getelementptr inbounds nuw %struct.Cgt_Par_t_, ptr %15, i32 0, i32 2
  %17 = load i32, ptr %16, align 4, !tbaa !57
  %18 = load ptr, ptr %2, align 8, !tbaa !10
  %19 = getelementptr inbounds nuw %struct.Cgt_Man_t_, ptr %18, i32 0, i32 0
  %20 = load ptr, ptr %19, align 8, !tbaa !12
  %21 = getelementptr inbounds nuw %struct.Cgt_Par_t_, ptr %20, i32 0, i32 3
  %22 = load i32, ptr %21, align 4, !tbaa !58
  %23 = load ptr, ptr %2, align 8, !tbaa !10
  %24 = getelementptr inbounds nuw %struct.Cgt_Man_t_, ptr %23, i32 0, i32 0
  %25 = load ptr, ptr %24, align 8, !tbaa !12
  %26 = getelementptr inbounds nuw %struct.Cgt_Par_t_, ptr %25, i32 0, i32 4
  %27 = load i32, ptr %26, align 4, !tbaa !59
  %28 = load ptr, ptr %2, align 8, !tbaa !10
  %29 = getelementptr inbounds nuw %struct.Cgt_Man_t_, ptr %28, i32 0, i32 0
  %30 = load ptr, ptr %29, align 8, !tbaa !12
  %31 = getelementptr inbounds nuw %struct.Cgt_Par_t_, ptr %30, i32 0, i32 5
  %32 = load i32, ptr %31, align 4, !tbaa !60
  %33 = call i32 (ptr, ...) @printf(ptr noundef @.str.1, i32 noundef %7, i32 noundef %12, i32 noundef %17, i32 noundef %22, i32 noundef %27, i32 noundef %32)
  %34 = load ptr, ptr %2, align 8, !tbaa !10
  %35 = getelementptr inbounds nuw %struct.Cgt_Man_t_, ptr %34, i32 0, i32 17
  %36 = load i32, ptr %35, align 4, !tbaa !61
  %37 = load ptr, ptr %2, align 8, !tbaa !10
  %38 = getelementptr inbounds nuw %struct.Cgt_Man_t_, ptr %37, i32 0, i32 19
  %39 = load i32, ptr %38, align 4, !tbaa !62
  %40 = load ptr, ptr %2, align 8, !tbaa !10
  %41 = getelementptr inbounds nuw %struct.Cgt_Man_t_, ptr %40, i32 0, i32 18
  %42 = load i32, ptr %41, align 8, !tbaa !63
  %43 = load ptr, ptr %2, align 8, !tbaa !10
  %44 = getelementptr inbounds nuw %struct.Cgt_Man_t_, ptr %43, i32 0, i32 20
  %45 = load i32, ptr %44, align 8, !tbaa !64
  %46 = load ptr, ptr %2, align 8, !tbaa !10
  %47 = getelementptr inbounds nuw %struct.Cgt_Man_t_, ptr %46, i32 0, i32 16
  %48 = load i32, ptr %47, align 8, !tbaa !65
  %49 = call i32 (ptr, ...) @printf(ptr noundef @.str.2, i32 noundef %36, i32 noundef %39, i32 noundef %42, i32 noundef %45, i32 noundef %48)
  call void (i32, ptr, ...) @Abc_Print(i32 noundef 1, ptr noundef @.str.3, ptr noundef @.str.4)
  %50 = load ptr, ptr %2, align 8, !tbaa !10
  %51 = getelementptr inbounds nuw %struct.Cgt_Man_t_, ptr %50, i32 0, i32 30
  %52 = load i64, ptr %51, align 8, !tbaa !66
  %53 = sitofp i64 %52 to double
  %54 = fmul double 1.000000e+00, %53
  %55 = fdiv double %54, 1.000000e+06
  call void (i32, ptr, ...) @Abc_Print(i32 noundef 1, ptr noundef @.str.5, double noundef %55)
  ret void
}