; Function Attrs: nounwind uwtable
define void @Cgt_ManPrintStats(ptr noundef readonly captures(none) %0) local_unnamed_addr #0 {
  %2 = load ptr, ptr %0, align 8, !tbaa !3
  %3 = load i32, ptr %2, align 4, !tbaa !49
  %4 = getelementptr inbounds nuw i8, ptr %2, i64 4
  %5 = load i32, ptr %4, align 4, !tbaa !51
  %6 = getelementptr inbounds nuw i8, ptr %2, i64 8
  %7 = load i32, ptr %6, align 4, !tbaa !52
  %8 = getelementptr inbounds nuw i8, ptr %2, i64 12
  %9 = load i32, ptr %8, align 4, !tbaa !53
  %10 = getelementptr inbounds nuw i8, ptr %2, i64 16
  %11 = load i32, ptr %10, align 4, !tbaa !54
  %12 = getelementptr inbounds nuw i8, ptr %2, i64 20
  %13 = load i32, ptr %12, align 4, !tbaa !55
  %14 = tail call i32 (ptr, ...) @printf(ptr noundef nonnull dereferenceable(1) @.str.1, i32 noundef %3, i32 noundef %5, i32 noundef %7, i32 noundef %9, i32 noundef %11, i32 noundef %13)
  %15 = getelementptr inbounds nuw i8, ptr %0, i64 124
  %16 = load i32, ptr %15, align 4, !tbaa !56
  %17 = getelementptr inbounds nuw i8, ptr %0, i64 132
  %18 = load i32, ptr %17, align 4, !tbaa !57
  %19 = getelementptr inbounds nuw i8, ptr %0, i64 128
  %20 = load i32, ptr %19, align 8, !tbaa !58
  %21 = getelementptr inbounds nuw i8, ptr %0, i64 136
  %22 = load i32, ptr %21, align 8, !tbaa !59
  %23 = getelementptr inbounds nuw i8, ptr %0, i64 120
  %24 = load i32, ptr %23, align 8, !tbaa !60
  %25 = tail call i32 (ptr, ...) @printf(ptr noundef nonnull dereferenceable(1) @.str.2, i32 noundef %16, i32 noundef %18, i32 noundef %20, i32 noundef %22, i32 noundef %24)
  tail call void (i32, ptr, ...) @Abc_Print(i32 poison, ptr noundef nonnull @.str.3, ptr noundef nonnull @.str.4)
  %26 = getelementptr inbounds nuw i8, ptr %0, i64 208
  %27 = load i64, ptr %26, align 8, !tbaa !61
  %28 = sitofp i64 %27 to double
  %29 = fdiv double %28, 1.000000e+06
  tail call void (i32, ptr, ...) @Abc_Print(i32 poison, ptr noundef nonnull @.str.5, double noundef %29)
  ret void
}